
Timer.elf:     file format elf32-avr

Sections:
Idx Name          Size      VMA       LMA       File off  Algn
  0 .text         00000c70  00000000  00000000  00000094  2**1
                  CONTENTS, ALLOC, LOAD, READONLY, CODE
  1 .data         000000be  00800060  00000c70  00000d04  2**0
                  CONTENTS, ALLOC, LOAD, DATA
  2 .bss          0000000e  0080011e  0080011e  00000dc2  2**0
                  ALLOC
  3 .stab         000006cc  00000000  00000000  00000dc4  2**2
                  CONTENTS, READONLY, DEBUGGING
  4 .stabstr      00000097  00000000  00000000  00001490  2**0
                  CONTENTS, READONLY, DEBUGGING
  5 .comment      0000002f  00000000  00000000  00001527  2**0
                  CONTENTS, READONLY

Disassembly of section .text:

00000000 <__vectors>:
   0:	12 c0       	rjmp	.+36     	; 0x26 <__ctors_end>
   2:	2c c0       	rjmp	.+88     	; 0x5c <__bad_interrupt>
   4:	2b c0       	rjmp	.+86     	; 0x5c <__bad_interrupt>
   6:	2a c0       	rjmp	.+84     	; 0x5c <__bad_interrupt>
   8:	29 c0       	rjmp	.+82     	; 0x5c <__bad_interrupt>
   a:	28 c0       	rjmp	.+80     	; 0x5c <__bad_interrupt>
   c:	be c3       	rjmp	.+1916   	; 0x78a <__vector_6>
   e:	26 c0       	rjmp	.+76     	; 0x5c <__bad_interrupt>
  10:	25 c0       	rjmp	.+74     	; 0x5c <__bad_interrupt>
  12:	24 c0       	rjmp	.+72     	; 0x5c <__bad_interrupt>
  14:	23 c0       	rjmp	.+70     	; 0x5c <__bad_interrupt>
  16:	22 c0       	rjmp	.+68     	; 0x5c <__bad_interrupt>
  18:	21 c0       	rjmp	.+66     	; 0x5c <__bad_interrupt>
  1a:	20 c0       	rjmp	.+64     	; 0x5c <__bad_interrupt>
  1c:	1f c0       	rjmp	.+62     	; 0x5c <__bad_interrupt>
  1e:	1e c0       	rjmp	.+60     	; 0x5c <__bad_interrupt>
  20:	1d c0       	rjmp	.+58     	; 0x5c <__bad_interrupt>
  22:	1c c0       	rjmp	.+56     	; 0x5c <__bad_interrupt>
  24:	1b c0       	rjmp	.+54     	; 0x5c <__bad_interrupt>

00000026 <__ctors_end>:
  26:	11 24       	eor	r1, r1
  28:	1f be       	out	0x3f, r1	; 63
  2a:	cf e5       	ldi	r28, 0x5F	; 95
  2c:	d4 e0       	ldi	r29, 0x04	; 4
  2e:	de bf       	out	0x3e, r29	; 62
  30:	cd bf       	out	0x3d, r28	; 61

00000032 <__do_copy_data>:
  32:	11 e0       	ldi	r17, 0x01	; 1
  34:	a0 e6       	ldi	r26, 0x60	; 96
  36:	b0 e0       	ldi	r27, 0x00	; 0
  38:	e0 e7       	ldi	r30, 0x70	; 112
  3a:	fc e0       	ldi	r31, 0x0C	; 12
  3c:	02 c0       	rjmp	.+4      	; 0x42 <__SREG__+0x3>
  3e:	05 90       	lpm	r0, Z+
  40:	0d 92       	st	X+, r0
  42:	ae 31       	cpi	r26, 0x1E	; 30
  44:	b1 07       	cpc	r27, r17
  46:	d9 f7       	brne	.-10     	; 0x3e <__SP_H__>

00000048 <__do_clear_bss>:
  48:	21 e0       	ldi	r18, 0x01	; 1
  4a:	ae e1       	ldi	r26, 0x1E	; 30
  4c:	b1 e0       	ldi	r27, 0x01	; 1
  4e:	01 c0       	rjmp	.+2      	; 0x52 <.do_clear_bss_start>

00000050 <.do_clear_bss_loop>:
  50:	1d 92       	st	X+, r1

00000052 <.do_clear_bss_start>:
  52:	ac 32       	cpi	r26, 0x2C	; 44
  54:	b2 07       	cpc	r27, r18
  56:	e1 f7       	brne	.-8      	; 0x50 <.do_clear_bss_loop>
  58:	dd d3       	rcall	.+1978   	; 0x814 <main>
  5a:	08 c6       	rjmp	.+3088   	; 0xc6c <_exit>

0000005c <__bad_interrupt>:
  5c:	d1 cf       	rjmp	.-94     	; 0x0 <__vectors>

0000005e <LCDBusyLoop>:
  5e:	81 b3       	in	r24, 0x11	; 17
  60:	80 7f       	andi	r24, 0xF0	; 240
  62:	81 bb       	out	0x11, r24	; 17
  64:	95 9a       	sbi	0x12, 5	; 18
  66:	96 98       	cbi	0x12, 6	; 18
  68:	82 e0       	ldi	r24, 0x02	; 2
  6a:	8a 95       	dec	r24
  6c:	f1 f7       	brne	.-4      	; 0x6a <LCDBusyLoop+0xc>
  6e:	94 9a       	sbi	0x12, 4	; 18
  70:	92 e0       	ldi	r25, 0x02	; 2
  72:	9a 95       	dec	r25
  74:	f1 f7       	brne	.-4      	; 0x72 <LCDBusyLoop+0x14>
  76:	80 b3       	in	r24, 0x10	; 16
  78:	82 95       	swap	r24
  7a:	80 7f       	andi	r24, 0xF0	; 240
  7c:	92 e0       	ldi	r25, 0x02	; 2
  7e:	9a 95       	dec	r25
  80:	f1 f7       	brne	.-4      	; 0x7e <LCDBusyLoop+0x20>
  82:	94 98       	cbi	0x12, 4	; 18
  84:	94 e0       	ldi	r25, 0x04	; 4
  86:	9a 95       	dec	r25
  88:	f1 f7       	brne	.-4      	; 0x86 <LCDBusyLoop+0x28>
  8a:	94 9a       	sbi	0x12, 4	; 18
  8c:	92 e0       	ldi	r25, 0x02	; 2
  8e:	9a 95       	dec	r25
  90:	f1 f7       	brne	.-4      	; 0x8e <LCDBusyLoop+0x30>
  92:	90 b3       	in	r25, 0x10	; 16
  94:	92 e0       	ldi	r25, 0x02	; 2
  96:	9a 95       	dec	r25
  98:	f1 f7       	brne	.-4      	; 0x96 <LCDBusyLoop+0x38>
  9a:	94 98       	cbi	0x12, 4	; 18
  9c:	94 e0       	ldi	r25, 0x04	; 4
  9e:	9a 95       	dec	r25
  a0:	f1 f7       	brne	.-4      	; 0x9e <LCDBusyLoop+0x40>
  a2:	87 fd       	sbrc	r24, 7
  a4:	e4 cf       	rjmp	.-56     	; 0x6e <LCDBusyLoop+0x10>
  a6:	95 98       	cbi	0x12, 5	; 18
  a8:	81 b3       	in	r24, 0x11	; 17
  aa:	8f 60       	ori	r24, 0x0F	; 15
  ac:	81 bb       	out	0x11, r24	; 17
  ae:	08 95       	ret

000000b0 <LCDByte>:
  b0:	28 2f       	mov	r18, r24
  b2:	22 95       	swap	r18
  b4:	2f 70       	andi	r18, 0x0F	; 15
  b6:	8f 70       	andi	r24, 0x0F	; 15
  b8:	61 11       	cpse	r22, r1
  ba:	02 c0       	rjmp	.+4      	; 0xc0 <LCDByte+0x10>
  bc:	96 98       	cbi	0x12, 6	; 18
  be:	01 c0       	rjmp	.+2      	; 0xc2 <LCDByte+0x12>
  c0:	96 9a       	sbi	0x12, 6	; 18
  c2:	92 e0       	ldi	r25, 0x02	; 2
  c4:	9a 95       	dec	r25
  c6:	f1 f7       	brne	.-4      	; 0xc4 <LCDByte+0x14>
  c8:	94 9a       	sbi	0x12, 4	; 18
  ca:	92 b3       	in	r25, 0x12	; 18
  cc:	90 7f       	andi	r25, 0xF0	; 240
  ce:	92 2b       	or	r25, r18
  d0:	92 bb       	out	0x12, r25	; 18
  d2:	94 e0       	ldi	r25, 0x04	; 4
  d4:	9a 95       	dec	r25
  d6:	f1 f7       	brne	.-4      	; 0xd4 <LCDByte+0x24>
  d8:	94 98       	cbi	0x12, 4	; 18
  da:	94 e0       	ldi	r25, 0x04	; 4
  dc:	9a 95       	dec	r25
  de:	f1 f7       	brne	.-4      	; 0xdc <LCDByte+0x2c>
  e0:	94 9a       	sbi	0x12, 4	; 18
  e2:	92 b3       	in	r25, 0x12	; 18
  e4:	90 7f       	andi	r25, 0xF0	; 240
  e6:	98 2b       	or	r25, r24
  e8:	92 bb       	out	0x12, r25	; 18
  ea:	84 e0       	ldi	r24, 0x04	; 4
  ec:	8a 95       	dec	r24
  ee:	f1 f7       	brne	.-4      	; 0xec <LCDByte+0x3c>
  f0:	94 98       	cbi	0x12, 4	; 18
  f2:	94 e0       	ldi	r25, 0x04	; 4
  f4:	9a 95       	dec	r25
  f6:	f1 f7       	brne	.-4      	; 0xf4 <LCDByte+0x44>
  f8:	b2 cf       	rjmp	.-156    	; 0x5e <LCDBusyLoop>

000000fa <InitLCD>:
  fa:	cf 93       	push	r28
  fc:	df 93       	push	r29
  fe:	1f 92       	push	r1
 100:	cd b7       	in	r28, 0x3d	; 61
 102:	de b7       	in	r29, 0x3e	; 62
 104:	2f e3       	ldi	r18, 0x3F	; 63
 106:	39 e1       	ldi	r19, 0x19	; 25
 108:	91 e0       	ldi	r25, 0x01	; 1
 10a:	21 50       	subi	r18, 0x01	; 1
 10c:	30 40       	sbci	r19, 0x00	; 0
 10e:	90 40       	sbci	r25, 0x00	; 0
 110:	e1 f7       	brne	.-8      	; 0x10a <InitLCD+0x10>
 112:	00 c0       	rjmp	.+0      	; 0x114 <InitLCD+0x1a>
 114:	00 00       	nop
 116:	91 b3       	in	r25, 0x11	; 17
 118:	9f 60       	ori	r25, 0x0F	; 15
 11a:	91 bb       	out	0x11, r25	; 17
 11c:	8c 9a       	sbi	0x11, 4	; 17
 11e:	8e 9a       	sbi	0x11, 6	; 17
 120:	8d 9a       	sbi	0x11, 5	; 17
 122:	92 b3       	in	r25, 0x12	; 18
 124:	90 7f       	andi	r25, 0xF0	; 240
 126:	92 bb       	out	0x12, r25	; 18
 128:	94 98       	cbi	0x12, 4	; 18
 12a:	95 98       	cbi	0x12, 5	; 18
 12c:	96 98       	cbi	0x12, 6	; 18
 12e:	00 c0       	rjmp	.+0      	; 0x130 <InitLCD+0x36>
 130:	00 c0       	rjmp	.+0      	; 0x132 <InitLCD+0x38>
 132:	94 9a       	sbi	0x12, 4	; 18
 134:	91 9a       	sbi	0x12, 1	; 18
 136:	e4 e0       	ldi	r30, 0x04	; 4
 138:	ea 95       	dec	r30
 13a:	f1 f7       	brne	.-4      	; 0x138 <InitLCD+0x3e>
 13c:	94 98       	cbi	0x12, 4	; 18
 13e:	f4 e0       	ldi	r31, 0x04	; 4
 140:	fa 95       	dec	r31
 142:	f1 f7       	brne	.-4      	; 0x140 <InitLCD+0x46>
 144:	89 83       	std	Y+1, r24	; 0x01
 146:	8b df       	rcall	.-234    	; 0x5e <LCDBusyLoop>
 148:	60 e0       	ldi	r22, 0x00	; 0
 14a:	89 81       	ldd	r24, Y+1	; 0x01
 14c:	8c 60       	ori	r24, 0x0C	; 12
 14e:	b0 df       	rcall	.-160    	; 0xb0 <LCDByte>
 150:	60 e0       	ldi	r22, 0x00	; 0
 152:	88 e2       	ldi	r24, 0x28	; 40
 154:	0f 90       	pop	r0
 156:	df 91       	pop	r29
 158:	cf 91       	pop	r28
 15a:	aa cf       	rjmp	.-172    	; 0xb0 <LCDByte>

0000015c <LCDWriteString>:
 15c:	cf 93       	push	r28
 15e:	df 93       	push	r29
 160:	ec 01       	movw	r28, r24
 162:	02 c0       	rjmp	.+4      	; 0x168 <LCDWriteString+0xc>
 164:	61 e0       	ldi	r22, 0x01	; 1
 166:	a4 df       	rcall	.-184    	; 0xb0 <LCDByte>
 168:	89 91       	ld	r24, Y+
 16a:	81 11       	cpse	r24, r1
 16c:	fb cf       	rjmp	.-10     	; 0x164 <LCDWriteString+0x8>
 16e:	df 91       	pop	r29
 170:	cf 91       	pop	r28
 172:	08 95       	ret

00000174 <LCDWriteInt>:
 174:	0f 93       	push	r16
 176:	1f 93       	push	r17
 178:	cf 93       	push	r28
 17a:	df 93       	push	r29
 17c:	00 d0       	rcall	.+0      	; 0x17e <LCDWriteInt+0xa>
 17e:	00 d0       	rcall	.+0      	; 0x180 <LCDWriteInt+0xc>
 180:	1f 92       	push	r1
 182:	cd b7       	in	r28, 0x3d	; 61
 184:	de b7       	in	r29, 0x3e	; 62
 186:	9b 01       	movw	r18, r22
 188:	fe 01       	movw	r30, r28
 18a:	31 96       	adiw	r30, 0x01	; 1
 18c:	45 e0       	ldi	r20, 0x05	; 5
 18e:	df 01       	movw	r26, r30
 190:	1d 92       	st	X+, r1
 192:	4a 95       	dec	r20
 194:	e9 f7       	brne	.-6      	; 0x190 <LCDWriteInt+0x1c>
 196:	fe 01       	movw	r30, r28
 198:	36 96       	adiw	r30, 0x06	; 6
 19a:	0a e0       	ldi	r16, 0x0A	; 10
 19c:	10 e0       	ldi	r17, 0x00	; 0
 19e:	04 c0       	rjmp	.+8      	; 0x1a8 <LCDWriteInt+0x34>
 1a0:	b8 01       	movw	r22, r16
 1a2:	3d d5       	rcall	.+2682   	; 0xc1e <__divmodhi4>
 1a4:	82 93       	st	-Z, r24
 1a6:	cb 01       	movw	r24, r22
 1a8:	00 97       	sbiw	r24, 0x00	; 0
 1aa:	d1 f7       	brne	.-12     	; 0x1a0 <LCDWriteInt+0x2c>
 1ac:	2f 3f       	cpi	r18, 0xFF	; 255
 1ae:	bf ef       	ldi	r27, 0xFF	; 255
 1b0:	3b 07       	cpc	r19, r27
 1b2:	51 f4       	brne	.+20     	; 0x1c8 <LCDWriteInt+0x54>
 1b4:	fe 01       	movw	r30, r28
 1b6:	31 96       	adiw	r30, 0x01	; 1
 1b8:	cf 01       	movw	r24, r30
 1ba:	8f 01       	movw	r16, r30
 1bc:	08 1b       	sub	r16, r24
 1be:	19 0b       	sbc	r17, r25
 1c0:	21 91       	ld	r18, Z+
 1c2:	22 23       	and	r18, r18
 1c4:	d1 f3       	breq	.-12     	; 0x1ba <LCDWriteInt+0x46>
 1c6:	11 c0       	rjmp	.+34     	; 0x1ea <LCDWriteInt+0x76>
 1c8:	05 e0       	ldi	r16, 0x05	; 5
 1ca:	10 e0       	ldi	r17, 0x00	; 0
 1cc:	02 1b       	sub	r16, r18
 1ce:	13 0b       	sbc	r17, r19
 1d0:	0c c0       	rjmp	.+24     	; 0x1ea <LCDWriteInt+0x76>
 1d2:	e1 e0       	ldi	r30, 0x01	; 1
 1d4:	f0 e0       	ldi	r31, 0x00	; 0
 1d6:	ec 0f       	add	r30, r28
 1d8:	fd 1f       	adc	r31, r29
 1da:	e0 0f       	add	r30, r16
 1dc:	f1 1f       	adc	r31, r17
 1de:	80 81       	ld	r24, Z
 1e0:	61 e0       	ldi	r22, 0x01	; 1
 1e2:	80 5d       	subi	r24, 0xD0	; 208
 1e4:	65 df       	rcall	.-310    	; 0xb0 <LCDByte>
 1e6:	0f 5f       	subi	r16, 0xFF	; 255
 1e8:	1f 4f       	sbci	r17, 0xFF	; 255
 1ea:	05 30       	cpi	r16, 0x05	; 5
 1ec:	11 05       	cpc	r17, r1
 1ee:	8c f3       	brlt	.-30     	; 0x1d2 <LCDWriteInt+0x5e>
 1f0:	0f 90       	pop	r0
 1f2:	0f 90       	pop	r0
 1f4:	0f 90       	pop	r0
 1f6:	0f 90       	pop	r0
 1f8:	0f 90       	pop	r0
 1fa:	df 91       	pop	r29
 1fc:	cf 91       	pop	r28
 1fe:	1f 91       	pop	r17
 200:	0f 91       	pop	r16
 202:	08 95       	ret

00000204 <LCDGotoXY>:
 204:	88 32       	cpi	r24, 0x28	; 40
 206:	28 f4       	brcc	.+10     	; 0x212 <LCDGotoXY+0xe>
 208:	61 11       	cpse	r22, r1
 20a:	80 64       	ori	r24, 0x40	; 64
 20c:	60 e0       	ldi	r22, 0x00	; 0
 20e:	80 68       	ori	r24, 0x80	; 128
 210:	4f cf       	rjmp	.-354    	; 0xb0 <LCDByte>
 212:	08 95       	ret

00000214 <Wait>:
 214:	9c e1       	ldi	r25, 0x1C	; 28
 216:	89 9f       	mul	r24, r25
 218:	80 2d       	mov	r24, r0
 21a:	11 24       	eor	r1, r1
 21c:	90 e0       	ldi	r25, 0x00	; 0
 21e:	20 e0       	ldi	r18, 0x00	; 0
 220:	30 e0       	ldi	r19, 0x00	; 0
 222:	04 c0       	rjmp	.+8      	; 0x22c <Wait+0x18>
 224:	f9 01       	movw	r30, r18
 226:	31 97       	sbiw	r30, 0x01	; 1
 228:	f1 f7       	brne	.-4      	; 0x226 <Wait+0x12>
 22a:	9f 5f       	subi	r25, 0xFF	; 255
 22c:	98 13       	cpse	r25, r24
 22e:	fa cf       	rjmp	.-12     	; 0x224 <Wait+0x10>
 230:	08 95       	ret

00000232 <LoadOn1>:
 232:	a8 9a       	sbi	0x15, 0	; 21
 234:	08 95       	ret

00000236 <LoadOff1>:
 236:	a8 98       	cbi	0x15, 0	; 21
 238:	08 95       	ret

0000023a <LoadOn2>:
 23a:	a9 9a       	sbi	0x15, 1	; 21
 23c:	08 95       	ret

0000023e <LoadOff2>:
 23e:	a9 98       	cbi	0x15, 1	; 21
 240:	08 95       	ret

00000242 <SetDevice1>:
 242:	0f 93       	push	r16
 244:	1f 93       	push	r17
 246:	cf 93       	push	r28
 248:	df 93       	push	r29
 24a:	60 e0       	ldi	r22, 0x00	; 0
 24c:	81 e0       	ldi	r24, 0x01	; 1
 24e:	30 df       	rcall	.-416    	; 0xb0 <LCDByte>
 250:	81 e6       	ldi	r24, 0x61	; 97
 252:	90 e0       	ldi	r25, 0x00	; 0
 254:	83 df       	rcall	.-250    	; 0x15c <LCDWriteString>
 256:	61 e0       	ldi	r22, 0x01	; 1
 258:	80 e0       	ldi	r24, 0x00	; 0
 25a:	d4 df       	rcall	.-88     	; 0x204 <LCDGotoXY>
 25c:	82 e7       	ldi	r24, 0x72	; 114
 25e:	90 e0       	ldi	r25, 0x00	; 0
 260:	7d df       	rcall	.-262    	; 0x15c <LCDWriteString>
 262:	10 92 60 00 	sts	0x0060, r1
 266:	86 b3       	in	r24, 0x16	; 22
 268:	80 93 2b 01 	sts	0x012B, r24
 26c:	1b e3       	ldi	r17, 0x3B	; 59
 26e:	07 e1       	ldi	r16, 0x17	; 23
 270:	c0 e0       	ldi	r28, 0x00	; 0
 272:	d0 e0       	ldi	r29, 0x00	; 0
 274:	96 b3       	in	r25, 0x16	; 22
 276:	80 91 2b 01 	lds	r24, 0x012B
 27a:	89 27       	eor	r24, r25
 27c:	87 70       	andi	r24, 0x07	; 7
 27e:	d1 f3       	breq	.-12     	; 0x274 <SetDevice1+0x32>
 280:	b2 99       	sbic	0x16, 2	; 22
 282:	0f c0       	rjmp	.+30     	; 0x2a2 <SetDevice1+0x60>
 284:	80 91 2b 01 	lds	r24, 0x012B
 288:	82 ff       	sbrs	r24, 2
 28a:	0b c0       	rjmp	.+22     	; 0x2a2 <SetDevice1+0x60>
 28c:	80 91 60 00 	lds	r24, 0x0060
 290:	8f 5f       	subi	r24, 0xFF	; 255
 292:	80 93 60 00 	sts	0x0060, r24
 296:	80 91 60 00 	lds	r24, 0x0060
 29a:	85 30       	cpi	r24, 0x05	; 5
 29c:	11 f4       	brne	.+4      	; 0x2a2 <SetDevice1+0x60>
 29e:	10 92 60 00 	sts	0x0060, r1
 2a2:	b1 9b       	sbis	0x16, 1	; 22
 2a4:	03 c0       	rjmp	.+6      	; 0x2ac <SetDevice1+0x6a>
 2a6:	b0 9b       	sbis	0x16, 0	; 22
 2a8:	87 c0       	rjmp	.+270    	; 0x3b8 <SetDevice1+0x176>
 2aa:	46 c0       	rjmp	.+140    	; 0x338 <SetDevice1+0xf6>
 2ac:	80 91 2b 01 	lds	r24, 0x012B
 2b0:	81 ff       	sbrs	r24, 1
 2b2:	f9 cf       	rjmp	.-14     	; 0x2a6 <SetDevice1+0x64>
 2b4:	80 91 60 00 	lds	r24, 0x0060
 2b8:	81 11       	cpse	r24, r1
 2ba:	0b c0       	rjmp	.+22     	; 0x2d2 <SetDevice1+0x90>
 2bc:	80 91 29 01 	lds	r24, 0x0129
 2c0:	8f 5f       	subi	r24, 0xFF	; 255
 2c2:	80 93 29 01 	sts	0x0129, r24
 2c6:	80 91 29 01 	lds	r24, 0x0129
 2ca:	88 31       	cpi	r24, 0x18	; 24
 2cc:	11 f4       	brne	.+4      	; 0x2d2 <SetDevice1+0x90>
 2ce:	10 92 29 01 	sts	0x0129, r1
 2d2:	80 91 60 00 	lds	r24, 0x0060
 2d6:	81 30       	cpi	r24, 0x01	; 1
 2d8:	59 f4       	brne	.+22     	; 0x2f0 <SetDevice1+0xae>
 2da:	80 91 26 01 	lds	r24, 0x0126
 2de:	8f 5f       	subi	r24, 0xFF	; 255
 2e0:	80 93 26 01 	sts	0x0126, r24
 2e4:	80 91 26 01 	lds	r24, 0x0126
 2e8:	8c 33       	cpi	r24, 0x3C	; 60
 2ea:	11 f4       	brne	.+4      	; 0x2f0 <SetDevice1+0xae>
 2ec:	10 92 26 01 	sts	0x0126, r1
 2f0:	80 91 60 00 	lds	r24, 0x0060
 2f4:	82 30       	cpi	r24, 0x02	; 2
 2f6:	59 f4       	brne	.+22     	; 0x30e <SetDevice1+0xcc>
 2f8:	80 91 24 01 	lds	r24, 0x0124
 2fc:	8f 5f       	subi	r24, 0xFF	; 255
 2fe:	80 93 24 01 	sts	0x0124, r24
 302:	80 91 24 01 	lds	r24, 0x0124
 306:	88 31       	cpi	r24, 0x18	; 24
 308:	11 f4       	brne	.+4      	; 0x30e <SetDevice1+0xcc>
 30a:	10 92 24 01 	sts	0x0124, r1
 30e:	80 91 60 00 	lds	r24, 0x0060
 312:	83 30       	cpi	r24, 0x03	; 3
 314:	59 f4       	brne	.+22     	; 0x32c <SetDevice1+0xea>
 316:	80 91 28 01 	lds	r24, 0x0128
 31a:	8f 5f       	subi	r24, 0xFF	; 255
 31c:	80 93 28 01 	sts	0x0128, r24
 320:	80 91 28 01 	lds	r24, 0x0128
 324:	8c 33       	cpi	r24, 0x3C	; 60
 326:	11 f4       	brne	.+4      	; 0x32c <SetDevice1+0xea>
 328:	10 92 28 01 	sts	0x0128, r1
 32c:	80 91 60 00 	lds	r24, 0x0060
 330:	84 30       	cpi	r24, 0x04	; 4
 332:	09 f0       	breq	.+2      	; 0x336 <SetDevice1+0xf4>
 334:	b8 cf       	rjmp	.-144    	; 0x2a6 <SetDevice1+0x64>
 336:	cd c0       	rjmp	.+410    	; 0x4d2 <__stack+0x73>
 338:	86 b3       	in	r24, 0x16	; 22
 33a:	80 93 2b 01 	sts	0x012B, r24
 33e:	60 e0       	ldi	r22, 0x00	; 0
 340:	81 e0       	ldi	r24, 0x01	; 1
 342:	b6 de       	rcall	.-660    	; 0xb0 <LCDByte>
 344:	81 e6       	ldi	r24, 0x61	; 97
 346:	90 e0       	ldi	r25, 0x00	; 0
 348:	09 df       	rcall	.-494    	; 0x15c <LCDWriteString>
 34a:	61 e0       	ldi	r22, 0x01	; 1
 34c:	80 e0       	ldi	r24, 0x00	; 0
 34e:	5a df       	rcall	.-332    	; 0x204 <LCDGotoXY>
 350:	82 e7       	ldi	r24, 0x72	; 114
 352:	90 e0       	ldi	r25, 0x00	; 0
 354:	03 df       	rcall	.-506    	; 0x15c <LCDWriteString>
 356:	60 e0       	ldi	r22, 0x00	; 0
 358:	82 e0       	ldi	r24, 0x02	; 2
 35a:	54 df       	rcall	.-344    	; 0x204 <LCDGotoXY>
 35c:	80 91 29 01 	lds	r24, 0x0129
 360:	62 e0       	ldi	r22, 0x02	; 2
 362:	70 e0       	ldi	r23, 0x00	; 0
 364:	99 27       	eor	r25, r25
 366:	87 fd       	sbrc	r24, 7
 368:	90 95       	com	r25
 36a:	04 df       	rcall	.-504    	; 0x174 <LCDWriteInt>
 36c:	60 e0       	ldi	r22, 0x00	; 0
 36e:	85 e0       	ldi	r24, 0x05	; 5
 370:	49 df       	rcall	.-366    	; 0x204 <LCDGotoXY>
 372:	80 91 26 01 	lds	r24, 0x0126
 376:	62 e0       	ldi	r22, 0x02	; 2
 378:	70 e0       	ldi	r23, 0x00	; 0
 37a:	99 27       	eor	r25, r25
 37c:	87 fd       	sbrc	r24, 7
 37e:	90 95       	com	r25
 380:	f9 de       	rcall	.-526    	; 0x174 <LCDWriteInt>
 382:	60 e0       	ldi	r22, 0x00	; 0
 384:	8b e0       	ldi	r24, 0x0B	; 11
 386:	3e df       	rcall	.-388    	; 0x204 <LCDGotoXY>
 388:	80 91 24 01 	lds	r24, 0x0124
 38c:	62 e0       	ldi	r22, 0x02	; 2
 38e:	70 e0       	ldi	r23, 0x00	; 0
 390:	99 27       	eor	r25, r25
 392:	87 fd       	sbrc	r24, 7
 394:	90 95       	com	r25
 396:	ee de       	rcall	.-548    	; 0x174 <LCDWriteInt>
 398:	60 e0       	ldi	r22, 0x00	; 0
 39a:	8e e0       	ldi	r24, 0x0E	; 14
 39c:	33 df       	rcall	.-410    	; 0x204 <LCDGotoXY>
 39e:	80 91 28 01 	lds	r24, 0x0128
 3a2:	62 e0       	ldi	r22, 0x02	; 2
 3a4:	70 e0       	ldi	r23, 0x00	; 0
 3a6:	99 27       	eor	r25, r25
 3a8:	87 fd       	sbrc	r24, 7
 3aa:	90 95       	com	r25
 3ac:	e3 de       	rcall	.-570    	; 0x174 <LCDWriteInt>
 3ae:	80 91 60 00 	lds	r24, 0x0060
 3b2:	81 11       	cpse	r24, r1
 3b4:	4d c0       	rjmp	.+154    	; 0x450 <SetDevice1+0x20e>
 3b6:	46 c0       	rjmp	.+140    	; 0x444 <SetDevice1+0x202>
 3b8:	80 91 2b 01 	lds	r24, 0x012B
 3bc:	80 ff       	sbrs	r24, 0
 3be:	bc cf       	rjmp	.-136    	; 0x338 <SetDevice1+0xf6>
 3c0:	80 91 60 00 	lds	r24, 0x0060
 3c4:	81 11       	cpse	r24, r1
 3c6:	0b c0       	rjmp	.+22     	; 0x3de <SetDevice1+0x19c>
 3c8:	80 91 29 01 	lds	r24, 0x0129
 3cc:	81 50       	subi	r24, 0x01	; 1
 3ce:	80 93 29 01 	sts	0x0129, r24
 3d2:	80 91 29 01 	lds	r24, 0x0129
 3d6:	8f 3f       	cpi	r24, 0xFF	; 255
 3d8:	11 f4       	brne	.+4      	; 0x3de <SetDevice1+0x19c>
 3da:	00 93 29 01 	sts	0x0129, r16
 3de:	80 91 60 00 	lds	r24, 0x0060
 3e2:	81 30       	cpi	r24, 0x01	; 1
 3e4:	59 f4       	brne	.+22     	; 0x3fc <SetDevice1+0x1ba>
 3e6:	80 91 26 01 	lds	r24, 0x0126
 3ea:	81 50       	subi	r24, 0x01	; 1
 3ec:	80 93 26 01 	sts	0x0126, r24
 3f0:	80 91 26 01 	lds	r24, 0x0126
 3f4:	8f 3f       	cpi	r24, 0xFF	; 255
 3f6:	11 f4       	brne	.+4      	; 0x3fc <SetDevice1+0x1ba>
 3f8:	10 93 26 01 	sts	0x0126, r17
 3fc:	80 91 60 00 	lds	r24, 0x0060
 400:	82 30       	cpi	r24, 0x02	; 2
 402:	59 f4       	brne	.+22     	; 0x41a <SetDevice1+0x1d8>
 404:	80 91 24 01 	lds	r24, 0x0124
 408:	81 50       	subi	r24, 0x01	; 1
 40a:	80 93 24 01 	sts	0x0124, r24
 40e:	80 91 24 01 	lds	r24, 0x0124
 412:	8f 3f       	cpi	r24, 0xFF	; 255
 414:	11 f4       	brne	.+4      	; 0x41a <SetDevice1+0x1d8>
 416:	00 93 24 01 	sts	0x0124, r16
 41a:	80 91 60 00 	lds	r24, 0x0060
 41e:	83 30       	cpi	r24, 0x03	; 3
 420:	59 f4       	brne	.+22     	; 0x438 <SetDevice1+0x1f6>
 422:	80 91 28 01 	lds	r24, 0x0128
 426:	81 50       	subi	r24, 0x01	; 1
 428:	80 93 28 01 	sts	0x0128, r24
 42c:	80 91 28 01 	lds	r24, 0x0128
 430:	8f 3f       	cpi	r24, 0xFF	; 255
 432:	11 f4       	brne	.+4      	; 0x438 <SetDevice1+0x1f6>
 434:	10 93 28 01 	sts	0x0128, r17
 438:	80 91 60 00 	lds	r24, 0x0060
 43c:	84 30       	cpi	r24, 0x04	; 4
 43e:	09 f0       	breq	.+2      	; 0x442 <SetDevice1+0x200>
 440:	7b cf       	rjmp	.-266    	; 0x338 <SetDevice1+0xf6>
 442:	47 c0       	rjmp	.+142    	; 0x4d2 <__stack+0x73>
 444:	61 e0       	ldi	r22, 0x01	; 1
 446:	83 e0       	ldi	r24, 0x03	; 3
 448:	dd de       	rcall	.-582    	; 0x204 <LCDGotoXY>
 44a:	84 ed       	ldi	r24, 0xD4	; 212
 44c:	90 e0       	ldi	r25, 0x00	; 0
 44e:	86 de       	rcall	.-756    	; 0x15c <LCDWriteString>
 450:	80 91 60 00 	lds	r24, 0x0060
 454:	81 30       	cpi	r24, 0x01	; 1
 456:	31 f4       	brne	.+12     	; 0x464 <__stack+0x5>
 458:	61 e0       	ldi	r22, 0x01	; 1
 45a:	85 e0       	ldi	r24, 0x05	; 5
 45c:	d3 de       	rcall	.-602    	; 0x204 <LCDGotoXY>
 45e:	84 ed       	ldi	r24, 0xD4	; 212
 460:	90 e0       	ldi	r25, 0x00	; 0
 462:	7c de       	rcall	.-776    	; 0x15c <LCDWriteString>
 464:	80 91 60 00 	lds	r24, 0x0060
 468:	82 30       	cpi	r24, 0x02	; 2
 46a:	31 f4       	brne	.+12     	; 0x478 <__stack+0x19>
 46c:	61 e0       	ldi	r22, 0x01	; 1
 46e:	8b e0       	ldi	r24, 0x0B	; 11
 470:	c9 de       	rcall	.-622    	; 0x204 <LCDGotoXY>
 472:	84 ed       	ldi	r24, 0xD4	; 212
 474:	90 e0       	ldi	r25, 0x00	; 0
 476:	72 de       	rcall	.-796    	; 0x15c <LCDWriteString>
 478:	80 91 60 00 	lds	r24, 0x0060
 47c:	83 30       	cpi	r24, 0x03	; 3
 47e:	31 f4       	brne	.+12     	; 0x48c <__stack+0x2d>
 480:	61 e0       	ldi	r22, 0x01	; 1
 482:	8e e0       	ldi	r24, 0x0E	; 14
 484:	bf de       	rcall	.-642    	; 0x204 <LCDGotoXY>
 486:	84 ed       	ldi	r24, 0xD4	; 212
 488:	90 e0       	ldi	r25, 0x00	; 0
 48a:	68 de       	rcall	.-816    	; 0x15c <LCDWriteString>
 48c:	80 91 60 00 	lds	r24, 0x0060
 490:	84 30       	cpi	r24, 0x04	; 4
 492:	31 f4       	brne	.+12     	; 0x4a0 <__stack+0x41>
 494:	61 e0       	ldi	r22, 0x01	; 1
 496:	80 e0       	ldi	r24, 0x00	; 0
 498:	b5 de       	rcall	.-662    	; 0x204 <LCDGotoXY>
 49a:	83 e8       	ldi	r24, 0x83	; 131
 49c:	90 e0       	ldi	r25, 0x00	; 0
 49e:	5e de       	rcall	.-836    	; 0x15c <LCDWriteString>
 4a0:	ce 01       	movw	r24, r28
 4a2:	01 97       	sbiw	r24, 0x01	; 1
 4a4:	f1 f7       	brne	.-4      	; 0x4a2 <__stack+0x43>
 4a6:	ce 01       	movw	r24, r28
 4a8:	01 97       	sbiw	r24, 0x01	; 1
 4aa:	f1 f7       	brne	.-4      	; 0x4a8 <__stack+0x49>
 4ac:	ce 01       	movw	r24, r28
 4ae:	01 97       	sbiw	r24, 0x01	; 1
 4b0:	f1 f7       	brne	.-4      	; 0x4ae <__stack+0x4f>
 4b2:	ce 01       	movw	r24, r28
 4b4:	01 97       	sbiw	r24, 0x01	; 1
 4b6:	f1 f7       	brne	.-4      	; 0x4b4 <__stack+0x55>
 4b8:	ce 01       	movw	r24, r28
 4ba:	01 97       	sbiw	r24, 0x01	; 1
 4bc:	f1 f7       	brne	.-4      	; 0x4ba <__stack+0x5b>
 4be:	ce 01       	movw	r24, r28
 4c0:	01 97       	sbiw	r24, 0x01	; 1
 4c2:	f1 f7       	brne	.-4      	; 0x4c0 <__stack+0x61>
 4c4:	ce 01       	movw	r24, r28
 4c6:	01 97       	sbiw	r24, 0x01	; 1
 4c8:	f1 f7       	brne	.-4      	; 0x4c6 <__stack+0x67>
 4ca:	ce 01       	movw	r24, r28
 4cc:	01 97       	sbiw	r24, 0x01	; 1
 4ce:	f1 f7       	brne	.-4      	; 0x4cc <__stack+0x6d>
 4d0:	d1 ce       	rjmp	.-606    	; 0x274 <SetDevice1+0x32>
 4d2:	10 92 60 00 	sts	0x0060, r1
 4d6:	86 b3       	in	r24, 0x16	; 22
 4d8:	80 93 2b 01 	sts	0x012B, r24
 4dc:	df 91       	pop	r29
 4de:	cf 91       	pop	r28
 4e0:	1f 91       	pop	r17
 4e2:	0f 91       	pop	r16
 4e4:	08 95       	ret

000004e6 <SetDevice2>:
 4e6:	0f 93       	push	r16
 4e8:	1f 93       	push	r17
 4ea:	cf 93       	push	r28
 4ec:	df 93       	push	r29
 4ee:	60 e0       	ldi	r22, 0x00	; 0
 4f0:	81 e0       	ldi	r24, 0x01	; 1
 4f2:	de dd       	rcall	.-1092   	; 0xb0 <LCDByte>
 4f4:	81 e6       	ldi	r24, 0x61	; 97
 4f6:	90 e0       	ldi	r25, 0x00	; 0
 4f8:	31 de       	rcall	.-926    	; 0x15c <LCDWriteString>
 4fa:	61 e0       	ldi	r22, 0x01	; 1
 4fc:	80 e0       	ldi	r24, 0x00	; 0
 4fe:	82 de       	rcall	.-764    	; 0x204 <LCDGotoXY>
 500:	85 e8       	ldi	r24, 0x85	; 133
 502:	90 e0       	ldi	r25, 0x00	; 0
 504:	2b de       	rcall	.-938    	; 0x15c <LCDWriteString>
 506:	10 92 60 00 	sts	0x0060, r1
 50a:	86 b3       	in	r24, 0x16	; 22
 50c:	80 93 2b 01 	sts	0x012B, r24
 510:	1b e3       	ldi	r17, 0x3B	; 59
 512:	07 e1       	ldi	r16, 0x17	; 23
 514:	c0 e0       	ldi	r28, 0x00	; 0
 516:	d0 e0       	ldi	r29, 0x00	; 0
 518:	96 b3       	in	r25, 0x16	; 22
 51a:	80 91 2b 01 	lds	r24, 0x012B
 51e:	89 27       	eor	r24, r25
 520:	87 70       	andi	r24, 0x07	; 7
 522:	d1 f3       	breq	.-12     	; 0x518 <SetDevice2+0x32>
 524:	b2 99       	sbic	0x16, 2	; 22
 526:	0f c0       	rjmp	.+30     	; 0x546 <SetDevice2+0x60>
 528:	80 91 2b 01 	lds	r24, 0x012B
 52c:	82 ff       	sbrs	r24, 2
 52e:	0b c0       	rjmp	.+22     	; 0x546 <SetDevice2+0x60>
 530:	80 91 60 00 	lds	r24, 0x0060
 534:	8f 5f       	subi	r24, 0xFF	; 255
 536:	80 93 60 00 	sts	0x0060, r24
 53a:	80 91 60 00 	lds	r24, 0x0060
 53e:	85 30       	cpi	r24, 0x05	; 5
 540:	11 f4       	brne	.+4      	; 0x546 <SetDevice2+0x60>
 542:	10 92 60 00 	sts	0x0060, r1
 546:	b1 9b       	sbis	0x16, 1	; 22
 548:	03 c0       	rjmp	.+6      	; 0x550 <SetDevice2+0x6a>
 54a:	b0 9b       	sbis	0x16, 0	; 22
 54c:	87 c0       	rjmp	.+270    	; 0x65c <SetDevice2+0x176>
 54e:	46 c0       	rjmp	.+140    	; 0x5dc <SetDevice2+0xf6>
 550:	80 91 2b 01 	lds	r24, 0x012B
 554:	81 ff       	sbrs	r24, 1
 556:	f9 cf       	rjmp	.-14     	; 0x54a <SetDevice2+0x64>
 558:	80 91 60 00 	lds	r24, 0x0060
 55c:	81 11       	cpse	r24, r1
 55e:	0b c0       	rjmp	.+22     	; 0x576 <SetDevice2+0x90>
 560:	80 91 23 01 	lds	r24, 0x0123
 564:	8f 5f       	subi	r24, 0xFF	; 255
 566:	80 93 23 01 	sts	0x0123, r24
 56a:	80 91 23 01 	lds	r24, 0x0123
 56e:	88 31       	cpi	r24, 0x18	; 24
 570:	11 f4       	brne	.+4      	; 0x576 <SetDevice2+0x90>
 572:	10 92 23 01 	sts	0x0123, r1
 576:	80 91 60 00 	lds	r24, 0x0060
 57a:	81 30       	cpi	r24, 0x01	; 1
 57c:	59 f4       	brne	.+22     	; 0x594 <SetDevice2+0xae>
 57e:	80 91 27 01 	lds	r24, 0x0127
 582:	8f 5f       	subi	r24, 0xFF	; 255
 584:	80 93 27 01 	sts	0x0127, r24
 588:	80 91 27 01 	lds	r24, 0x0127
 58c:	8c 33       	cpi	r24, 0x3C	; 60
 58e:	11 f4       	brne	.+4      	; 0x594 <SetDevice2+0xae>
 590:	10 92 27 01 	sts	0x0127, r1
 594:	80 91 60 00 	lds	r24, 0x0060
 598:	82 30       	cpi	r24, 0x02	; 2
 59a:	59 f4       	brne	.+22     	; 0x5b2 <SetDevice2+0xcc>
 59c:	80 91 25 01 	lds	r24, 0x0125
 5a0:	8f 5f       	subi	r24, 0xFF	; 255
 5a2:	80 93 25 01 	sts	0x0125, r24
 5a6:	80 91 25 01 	lds	r24, 0x0125
 5aa:	88 31       	cpi	r24, 0x18	; 24
 5ac:	11 f4       	brne	.+4      	; 0x5b2 <SetDevice2+0xcc>
 5ae:	10 92 25 01 	sts	0x0125, r1
 5b2:	80 91 60 00 	lds	r24, 0x0060
 5b6:	83 30       	cpi	r24, 0x03	; 3
 5b8:	59 f4       	brne	.+22     	; 0x5d0 <SetDevice2+0xea>
 5ba:	80 91 2a 01 	lds	r24, 0x012A
 5be:	8f 5f       	subi	r24, 0xFF	; 255
 5c0:	80 93 2a 01 	sts	0x012A, r24
 5c4:	80 91 2a 01 	lds	r24, 0x012A
 5c8:	8c 33       	cpi	r24, 0x3C	; 60
 5ca:	11 f4       	brne	.+4      	; 0x5d0 <SetDevice2+0xea>
 5cc:	10 92 2a 01 	sts	0x012A, r1
 5d0:	80 91 60 00 	lds	r24, 0x0060
 5d4:	84 30       	cpi	r24, 0x04	; 4
 5d6:	09 f0       	breq	.+2      	; 0x5da <SetDevice2+0xf4>
 5d8:	b8 cf       	rjmp	.-144    	; 0x54a <SetDevice2+0x64>
 5da:	cd c0       	rjmp	.+410    	; 0x776 <SetDevice2+0x290>
 5dc:	86 b3       	in	r24, 0x16	; 22
 5de:	80 93 2b 01 	sts	0x012B, r24
 5e2:	60 e0       	ldi	r22, 0x00	; 0
 5e4:	81 e0       	ldi	r24, 0x01	; 1
 5e6:	64 dd       	rcall	.-1336   	; 0xb0 <LCDByte>
 5e8:	81 e6       	ldi	r24, 0x61	; 97
 5ea:	90 e0       	ldi	r25, 0x00	; 0
 5ec:	b7 dd       	rcall	.-1170   	; 0x15c <LCDWriteString>
 5ee:	61 e0       	ldi	r22, 0x01	; 1
 5f0:	80 e0       	ldi	r24, 0x00	; 0
 5f2:	08 de       	rcall	.-1008   	; 0x204 <LCDGotoXY>
 5f4:	85 e8       	ldi	r24, 0x85	; 133
 5f6:	90 e0       	ldi	r25, 0x00	; 0
 5f8:	b1 dd       	rcall	.-1182   	; 0x15c <LCDWriteString>
 5fa:	60 e0       	ldi	r22, 0x00	; 0
 5fc:	82 e0       	ldi	r24, 0x02	; 2
 5fe:	02 de       	rcall	.-1020   	; 0x204 <LCDGotoXY>
 600:	80 91 23 01 	lds	r24, 0x0123
 604:	62 e0       	ldi	r22, 0x02	; 2
 606:	70 e0       	ldi	r23, 0x00	; 0
 608:	99 27       	eor	r25, r25
 60a:	87 fd       	sbrc	r24, 7
 60c:	90 95       	com	r25
 60e:	b2 dd       	rcall	.-1180   	; 0x174 <LCDWriteInt>
 610:	60 e0       	ldi	r22, 0x00	; 0
 612:	85 e0       	ldi	r24, 0x05	; 5
 614:	f7 dd       	rcall	.-1042   	; 0x204 <LCDGotoXY>
 616:	80 91 27 01 	lds	r24, 0x0127
 61a:	62 e0       	ldi	r22, 0x02	; 2
 61c:	70 e0       	ldi	r23, 0x00	; 0
 61e:	99 27       	eor	r25, r25
 620:	87 fd       	sbrc	r24, 7
 622:	90 95       	com	r25
 624:	a7 dd       	rcall	.-1202   	; 0x174 <LCDWriteInt>
 626:	60 e0       	ldi	r22, 0x00	; 0
 628:	8b e0       	ldi	r24, 0x0B	; 11
 62a:	ec dd       	rcall	.-1064   	; 0x204 <LCDGotoXY>
 62c:	80 91 25 01 	lds	r24, 0x0125
 630:	62 e0       	ldi	r22, 0x02	; 2
 632:	70 e0       	ldi	r23, 0x00	; 0
 634:	99 27       	eor	r25, r25
 636:	87 fd       	sbrc	r24, 7
 638:	90 95       	com	r25
 63a:	9c dd       	rcall	.-1224   	; 0x174 <LCDWriteInt>
 63c:	60 e0       	ldi	r22, 0x00	; 0
 63e:	8e e0       	ldi	r24, 0x0E	; 14
 640:	e1 dd       	rcall	.-1086   	; 0x204 <LCDGotoXY>
 642:	80 91 2a 01 	lds	r24, 0x012A
 646:	62 e0       	ldi	r22, 0x02	; 2
 648:	70 e0       	ldi	r23, 0x00	; 0
 64a:	99 27       	eor	r25, r25
 64c:	87 fd       	sbrc	r24, 7
 64e:	90 95       	com	r25
 650:	91 dd       	rcall	.-1246   	; 0x174 <LCDWriteInt>
 652:	80 91 60 00 	lds	r24, 0x0060
 656:	81 11       	cpse	r24, r1
 658:	4d c0       	rjmp	.+154    	; 0x6f4 <SetDevice2+0x20e>
 65a:	46 c0       	rjmp	.+140    	; 0x6e8 <SetDevice2+0x202>
 65c:	80 91 2b 01 	lds	r24, 0x012B
 660:	80 ff       	sbrs	r24, 0
 662:	bc cf       	rjmp	.-136    	; 0x5dc <SetDevice2+0xf6>
 664:	80 91 60 00 	lds	r24, 0x0060
 668:	81 11       	cpse	r24, r1
 66a:	0b c0       	rjmp	.+22     	; 0x682 <SetDevice2+0x19c>
 66c:	80 91 23 01 	lds	r24, 0x0123
 670:	81 50       	subi	r24, 0x01	; 1
 672:	80 93 23 01 	sts	0x0123, r24
 676:	80 91 23 01 	lds	r24, 0x0123
 67a:	8f 3f       	cpi	r24, 0xFF	; 255
 67c:	11 f4       	brne	.+4      	; 0x682 <SetDevice2+0x19c>
 67e:	00 93 23 01 	sts	0x0123, r16
 682:	80 91 60 00 	lds	r24, 0x0060
 686:	81 30       	cpi	r24, 0x01	; 1
 688:	59 f4       	brne	.+22     	; 0x6a0 <SetDevice2+0x1ba>
 68a:	80 91 27 01 	lds	r24, 0x0127
 68e:	81 50       	subi	r24, 0x01	; 1
 690:	80 93 27 01 	sts	0x0127, r24
 694:	80 91 27 01 	lds	r24, 0x0127
 698:	8f 3f       	cpi	r24, 0xFF	; 255
 69a:	11 f4       	brne	.+4      	; 0x6a0 <SetDevice2+0x1ba>
 69c:	10 93 27 01 	sts	0x0127, r17
 6a0:	80 91 60 00 	lds	r24, 0x0060
 6a4:	82 30       	cpi	r24, 0x02	; 2
 6a6:	59 f4       	brne	.+22     	; 0x6be <SetDevice2+0x1d8>
 6a8:	80 91 25 01 	lds	r24, 0x0125
 6ac:	81 50       	subi	r24, 0x01	; 1
 6ae:	80 93 25 01 	sts	0x0125, r24
 6b2:	80 91 25 01 	lds	r24, 0x0125
 6b6:	8f 3f       	cpi	r24, 0xFF	; 255
 6b8:	11 f4       	brne	.+4      	; 0x6be <SetDevice2+0x1d8>
 6ba:	00 93 25 01 	sts	0x0125, r16
 6be:	80 91 60 00 	lds	r24, 0x0060
 6c2:	83 30       	cpi	r24, 0x03	; 3
 6c4:	59 f4       	brne	.+22     	; 0x6dc <SetDevice2+0x1f6>
 6c6:	80 91 2a 01 	lds	r24, 0x012A
 6ca:	81 50       	subi	r24, 0x01	; 1
 6cc:	80 93 2a 01 	sts	0x012A, r24
 6d0:	80 91 2a 01 	lds	r24, 0x012A
 6d4:	8f 3f       	cpi	r24, 0xFF	; 255
 6d6:	11 f4       	brne	.+4      	; 0x6dc <SetDevice2+0x1f6>
 6d8:	10 93 2a 01 	sts	0x012A, r17
 6dc:	80 91 60 00 	lds	r24, 0x0060
 6e0:	84 30       	cpi	r24, 0x04	; 4
 6e2:	09 f0       	breq	.+2      	; 0x6e6 <SetDevice2+0x200>
 6e4:	7b cf       	rjmp	.-266    	; 0x5dc <SetDevice2+0xf6>
 6e6:	47 c0       	rjmp	.+142    	; 0x776 <SetDevice2+0x290>
 6e8:	61 e0       	ldi	r22, 0x01	; 1
 6ea:	83 e0       	ldi	r24, 0x03	; 3
 6ec:	8b dd       	rcall	.-1258   	; 0x204 <LCDGotoXY>
 6ee:	84 ed       	ldi	r24, 0xD4	; 212
 6f0:	90 e0       	ldi	r25, 0x00	; 0
 6f2:	34 dd       	rcall	.-1432   	; 0x15c <LCDWriteString>
 6f4:	80 91 60 00 	lds	r24, 0x0060
 6f8:	81 30       	cpi	r24, 0x01	; 1
 6fa:	31 f4       	brne	.+12     	; 0x708 <SetDevice2+0x222>
 6fc:	61 e0       	ldi	r22, 0x01	; 1
 6fe:	85 e0       	ldi	r24, 0x05	; 5
 700:	81 dd       	rcall	.-1278   	; 0x204 <LCDGotoXY>
 702:	84 ed       	ldi	r24, 0xD4	; 212
 704:	90 e0       	ldi	r25, 0x00	; 0
 706:	2a dd       	rcall	.-1452   	; 0x15c <LCDWriteString>
 708:	80 91 60 00 	lds	r24, 0x0060
 70c:	82 30       	cpi	r24, 0x02	; 2
 70e:	31 f4       	brne	.+12     	; 0x71c <SetDevice2+0x236>
 710:	61 e0       	ldi	r22, 0x01	; 1
 712:	8b e0       	ldi	r24, 0x0B	; 11
 714:	77 dd       	rcall	.-1298   	; 0x204 <LCDGotoXY>
 716:	84 ed       	ldi	r24, 0xD4	; 212
 718:	90 e0       	ldi	r25, 0x00	; 0
 71a:	20 dd       	rcall	.-1472   	; 0x15c <LCDWriteString>
 71c:	80 91 60 00 	lds	r24, 0x0060
 720:	83 30       	cpi	r24, 0x03	; 3
 722:	31 f4       	brne	.+12     	; 0x730 <SetDevice2+0x24a>
 724:	61 e0       	ldi	r22, 0x01	; 1
 726:	8e e0       	ldi	r24, 0x0E	; 14
 728:	6d dd       	rcall	.-1318   	; 0x204 <LCDGotoXY>
 72a:	84 ed       	ldi	r24, 0xD4	; 212
 72c:	90 e0       	ldi	r25, 0x00	; 0
 72e:	16 dd       	rcall	.-1492   	; 0x15c <LCDWriteString>
 730:	80 91 60 00 	lds	r24, 0x0060
 734:	84 30       	cpi	r24, 0x04	; 4
 736:	31 f4       	brne	.+12     	; 0x744 <SetDevice2+0x25e>
 738:	61 e0       	ldi	r22, 0x01	; 1
 73a:	80 e0       	ldi	r24, 0x00	; 0
 73c:	63 dd       	rcall	.-1338   	; 0x204 <LCDGotoXY>
 73e:	83 e8       	ldi	r24, 0x83	; 131
 740:	90 e0       	ldi	r25, 0x00	; 0
 742:	0c dd       	rcall	.-1512   	; 0x15c <LCDWriteString>
 744:	ce 01       	movw	r24, r28
 746:	01 97       	sbiw	r24, 0x01	; 1
 748:	f1 f7       	brne	.-4      	; 0x746 <SetDevice2+0x260>
 74a:	ce 01       	movw	r24, r28
 74c:	01 97       	sbiw	r24, 0x01	; 1
 74e:	f1 f7       	brne	.-4      	; 0x74c <SetDevice2+0x266>
 750:	ce 01       	movw	r24, r28
 752:	01 97       	sbiw	r24, 0x01	; 1
 754:	f1 f7       	brne	.-4      	; 0x752 <SetDevice2+0x26c>
 756:	ce 01       	movw	r24, r28
 758:	01 97       	sbiw	r24, 0x01	; 1
 75a:	f1 f7       	brne	.-4      	; 0x758 <SetDevice2+0x272>
 75c:	ce 01       	movw	r24, r28
 75e:	01 97       	sbiw	r24, 0x01	; 1
 760:	f1 f7       	brne	.-4      	; 0x75e <SetDevice2+0x278>
 762:	ce 01       	movw	r24, r28
 764:	01 97       	sbiw	r24, 0x01	; 1
 766:	f1 f7       	brne	.-4      	; 0x764 <SetDevice2+0x27e>
 768:	ce 01       	movw	r24, r28
 76a:	01 97       	sbiw	r24, 0x01	; 1
 76c:	f1 f7       	brne	.-4      	; 0x76a <SetDevice2+0x284>
 76e:	ce 01       	movw	r24, r28
 770:	01 97       	sbiw	r24, 0x01	; 1
 772:	f1 f7       	brne	.-4      	; 0x770 <SetDevice2+0x28a>
 774:	d1 ce       	rjmp	.-606    	; 0x518 <SetDevice2+0x32>
 776:	10 92 60 00 	sts	0x0060, r1
 77a:	86 b3       	in	r24, 0x16	; 22
 77c:	80 93 2b 01 	sts	0x012B, r24
 780:	df 91       	pop	r29
 782:	cf 91       	pop	r28
 784:	1f 91       	pop	r17
 786:	0f 91       	pop	r16
 788:	08 95       	ret

0000078a <__vector_6>:
 78a:	1f 92       	push	r1
 78c:	0f 92       	push	r0
 78e:	0f b6       	in	r0, 0x3f	; 63
 790:	0f 92       	push	r0
 792:	11 24       	eor	r1, r1
 794:	2f 93       	push	r18
 796:	8f 93       	push	r24
 798:	9f 93       	push	r25
 79a:	80 91 21 01 	lds	r24, 0x0121
 79e:	90 91 22 01 	lds	r25, 0x0122
 7a2:	01 96       	adiw	r24, 0x01	; 1
 7a4:	90 93 22 01 	sts	0x0122, r25
 7a8:	80 93 21 01 	sts	0x0121, r24
 7ac:	80 91 21 01 	lds	r24, 0x0121
 7b0:	90 91 22 01 	lds	r25, 0x0122
 7b4:	88 3e       	cpi	r24, 0xE8	; 232
 7b6:	93 40       	sbci	r25, 0x03	; 3
 7b8:	29 f5       	brne	.+74     	; 0x804 <__vector_6+0x7a>
 7ba:	80 91 20 01 	lds	r24, 0x0120
 7be:	8f 5f       	subi	r24, 0xFF	; 255
 7c0:	80 93 20 01 	sts	0x0120, r24
 7c4:	10 92 22 01 	sts	0x0122, r1
 7c8:	10 92 21 01 	sts	0x0121, r1
 7cc:	80 91 20 01 	lds	r24, 0x0120
 7d0:	8c 33       	cpi	r24, 0x3C	; 60
 7d2:	c1 f4       	brne	.+48     	; 0x804 <__vector_6+0x7a>
 7d4:	80 91 1f 01 	lds	r24, 0x011F
 7d8:	8f 5f       	subi	r24, 0xFF	; 255
 7da:	80 93 1f 01 	sts	0x011F, r24
 7de:	10 92 20 01 	sts	0x0120, r1
 7e2:	80 91 1f 01 	lds	r24, 0x011F
 7e6:	8c 33       	cpi	r24, 0x3C	; 60
 7e8:	69 f4       	brne	.+26     	; 0x804 <__vector_6+0x7a>
 7ea:	80 91 1e 01 	lds	r24, 0x011E
 7ee:	8f 5f       	subi	r24, 0xFF	; 255
 7f0:	80 93 1e 01 	sts	0x011E, r24
 7f4:	10 92 1f 01 	sts	0x011F, r1
 7f8:	80 91 1e 01 	lds	r24, 0x011E
 7fc:	88 31       	cpi	r24, 0x18	; 24
 7fe:	11 f4       	brne	.+4      	; 0x804 <__vector_6+0x7a>
 800:	10 92 1e 01 	sts	0x011E, r1
 804:	9f 91       	pop	r25
 806:	8f 91       	pop	r24
 808:	2f 91       	pop	r18
 80a:	0f 90       	pop	r0
 80c:	0f be       	out	0x3f, r0	; 63
 80e:	0f 90       	pop	r0
 810:	1f 90       	pop	r1
 812:	18 95       	reti

00000814 <main>:
 814:	a0 9a       	sbi	0x14, 0	; 20
 816:	a1 9a       	sbi	0x14, 1	; 20
 818:	0e dd       	rcall	.-1508   	; 0x236 <LoadOff1>
 81a:	11 dd       	rcall	.-1502   	; 0x23e <LoadOff2>
 81c:	88 b3       	in	r24, 0x18	; 24
 81e:	87 60       	ori	r24, 0x07	; 7
 820:	88 bb       	out	0x18, r24	; 24
 822:	10 92 28 01 	sts	0x0128, r1
 826:	10 92 24 01 	sts	0x0124, r1
 82a:	10 92 26 01 	sts	0x0126, r1
 82e:	10 92 29 01 	sts	0x0129, r1
 832:	80 e0       	ldi	r24, 0x00	; 0
 834:	62 dc       	rcall	.-1852   	; 0xfa <InitLCD>
 836:	60 e0       	ldi	r22, 0x00	; 0
 838:	81 e0       	ldi	r24, 0x01	; 1
 83a:	3a dc       	rcall	.-1932   	; 0xb0 <LCDByte>
 83c:	8b e0       	ldi	r24, 0x0B	; 11
 83e:	8e bd       	out	0x2e, r24	; 46
 840:	8a ef       	ldi	r24, 0xFA	; 250
 842:	90 e0       	ldi	r25, 0x00	; 0
 844:	9b bd       	out	0x2b, r25	; 43
 846:	8a bd       	out	0x2a, r24	; 42
 848:	89 b7       	in	r24, 0x39	; 57
 84a:	80 61       	ori	r24, 0x10	; 16
 84c:	89 bf       	out	0x39, r24	; 57
 84e:	78 94       	sei
 850:	60 e0       	ldi	r22, 0x00	; 0
 852:	81 e0       	ldi	r24, 0x01	; 1
 854:	2d dc       	rcall	.-1958   	; 0xb0 <LCDByte>
 856:	86 e9       	ldi	r24, 0x96	; 150
 858:	90 e0       	ldi	r25, 0x00	; 0
 85a:	80 dc       	rcall	.-1792   	; 0x15c <LCDWriteString>
 85c:	61 e0       	ldi	r22, 0x01	; 1
 85e:	80 e0       	ldi	r24, 0x00	; 0
 860:	d1 dc       	rcall	.-1630   	; 0x204 <LCDGotoXY>
 862:	87 ea       	ldi	r24, 0xA7	; 167
 864:	90 e0       	ldi	r25, 0x00	; 0
 866:	7a dc       	rcall	.-1804   	; 0x15c <LCDWriteString>
 868:	84 e0       	ldi	r24, 0x04	; 4
 86a:	d4 dc       	rcall	.-1624   	; 0x214 <Wait>
 86c:	60 e0       	ldi	r22, 0x00	; 0
 86e:	81 e0       	ldi	r24, 0x01	; 1
 870:	1f dc       	rcall	.-1986   	; 0xb0 <LCDByte>
 872:	88 eb       	ldi	r24, 0xB8	; 184
 874:	90 e0       	ldi	r25, 0x00	; 0
 876:	72 dc       	rcall	.-1820   	; 0x15c <LCDWriteString>
 878:	61 e0       	ldi	r22, 0x01	; 1
 87a:	80 e0       	ldi	r24, 0x00	; 0
 87c:	c3 dc       	rcall	.-1658   	; 0x204 <LCDGotoXY>
 87e:	89 ec       	ldi	r24, 0xC9	; 201
 880:	90 e0       	ldi	r25, 0x00	; 0
 882:	6c dc       	rcall	.-1832   	; 0x15c <LCDWriteString>
 884:	86 b3       	in	r24, 0x16	; 22
 886:	80 93 2b 01 	sts	0x012B, r24
 88a:	10 e0       	ldi	r17, 0x00	; 0
 88c:	00 e0       	ldi	r16, 0x00	; 0
 88e:	c0 e0       	ldi	r28, 0x00	; 0
 890:	d0 e0       	ldi	r29, 0x00	; 0
 892:	96 b3       	in	r25, 0x16	; 22
 894:	80 91 2b 01 	lds	r24, 0x012B
 898:	89 27       	eor	r24, r25
 89a:	87 70       	andi	r24, 0x07	; 7
 89c:	d1 f3       	breq	.-12     	; 0x892 <main+0x7e>
 89e:	b2 99       	sbic	0x16, 2	; 22
 8a0:	0f c0       	rjmp	.+30     	; 0x8c0 <main+0xac>
 8a2:	80 91 2b 01 	lds	r24, 0x012B
 8a6:	82 ff       	sbrs	r24, 2
 8a8:	0b c0       	rjmp	.+22     	; 0x8c0 <main+0xac>
 8aa:	80 91 60 00 	lds	r24, 0x0060
 8ae:	8f 5f       	subi	r24, 0xFF	; 255
 8b0:	80 93 60 00 	sts	0x0060, r24
 8b4:	80 91 60 00 	lds	r24, 0x0060
 8b8:	83 30       	cpi	r24, 0x03	; 3
 8ba:	11 f4       	brne	.+4      	; 0x8c0 <main+0xac>
 8bc:	10 92 60 00 	sts	0x0060, r1
 8c0:	b1 99       	sbic	0x16, 1	; 22
 8c2:	19 c0       	rjmp	.+50     	; 0x8f6 <main+0xe2>
 8c4:	80 91 2b 01 	lds	r24, 0x012B
 8c8:	81 ff       	sbrs	r24, 1
 8ca:	15 c0       	rjmp	.+42     	; 0x8f6 <main+0xe2>
 8cc:	80 91 60 00 	lds	r24, 0x0060
 8d0:	81 30       	cpi	r24, 0x01	; 1
 8d2:	21 f4       	brne	.+8      	; 0x8dc <main+0xc8>
 8d4:	0f 5f       	subi	r16, 0xFF	; 255
 8d6:	08 31       	cpi	r16, 0x18	; 24
 8d8:	09 f4       	brne	.+2      	; 0x8dc <main+0xc8>
 8da:	00 e0       	ldi	r16, 0x00	; 0
 8dc:	80 91 60 00 	lds	r24, 0x0060
 8e0:	82 30       	cpi	r24, 0x02	; 2
 8e2:	21 f4       	brne	.+8      	; 0x8ec <main+0xd8>
 8e4:	1f 5f       	subi	r17, 0xFF	; 255
 8e6:	1c 33       	cpi	r17, 0x3C	; 60
 8e8:	09 f4       	brne	.+2      	; 0x8ec <main+0xd8>
 8ea:	10 e0       	ldi	r17, 0x00	; 0
 8ec:	80 91 60 00 	lds	r24, 0x0060
 8f0:	88 23       	and	r24, r24
 8f2:	09 f4       	brne	.+2      	; 0x8f6 <main+0xe2>
 8f4:	72 c0       	rjmp	.+228    	; 0x9da <main+0x1c6>
 8f6:	b0 99       	sbic	0x16, 0	; 22
 8f8:	17 c0       	rjmp	.+46     	; 0x928 <main+0x114>
 8fa:	80 91 2b 01 	lds	r24, 0x012B
 8fe:	80 ff       	sbrs	r24, 0
 900:	13 c0       	rjmp	.+38     	; 0x928 <main+0x114>
 902:	80 91 60 00 	lds	r24, 0x0060
 906:	81 30       	cpi	r24, 0x01	; 1
 908:	19 f4       	brne	.+6      	; 0x910 <main+0xfc>
 90a:	01 50       	subi	r16, 0x01	; 1
 90c:	08 f4       	brcc	.+2      	; 0x910 <main+0xfc>
 90e:	07 e1       	ldi	r16, 0x17	; 23
 910:	80 91 60 00 	lds	r24, 0x0060
 914:	82 30       	cpi	r24, 0x02	; 2
 916:	19 f4       	brne	.+6      	; 0x91e <main+0x10a>
 918:	11 50       	subi	r17, 0x01	; 1
 91a:	08 f4       	brcc	.+2      	; 0x91e <main+0x10a>
 91c:	1b e3       	ldi	r17, 0x3B	; 59
 91e:	80 91 60 00 	lds	r24, 0x0060
 922:	88 23       	and	r24, r24
 924:	09 f4       	brne	.+2      	; 0x928 <main+0x114>
 926:	59 c0       	rjmp	.+178    	; 0x9da <main+0x1c6>
 928:	86 b3       	in	r24, 0x16	; 22
 92a:	80 93 2b 01 	sts	0x012B, r24
 92e:	60 e0       	ldi	r22, 0x00	; 0
 930:	81 e0       	ldi	r24, 0x01	; 1
 932:	be db       	rcall	.-2180   	; 0xb0 <LCDByte>
 934:	88 eb       	ldi	r24, 0xB8	; 184
 936:	90 e0       	ldi	r25, 0x00	; 0
 938:	11 dc       	rcall	.-2014   	; 0x15c <LCDWriteString>
 93a:	61 e0       	ldi	r22, 0x01	; 1
 93c:	80 e0       	ldi	r24, 0x00	; 0
 93e:	62 dc       	rcall	.-1852   	; 0x204 <LCDGotoXY>
 940:	86 ed       	ldi	r24, 0xD6	; 214
 942:	90 e0       	ldi	r25, 0x00	; 0
 944:	0b dc       	rcall	.-2026   	; 0x15c <LCDWriteString>
 946:	60 e0       	ldi	r22, 0x00	; 0
 948:	8b e0       	ldi	r24, 0x0B	; 11
 94a:	5c dc       	rcall	.-1864   	; 0x204 <LCDGotoXY>
 94c:	62 e0       	ldi	r22, 0x02	; 2
 94e:	70 e0       	ldi	r23, 0x00	; 0
 950:	80 2f       	mov	r24, r16
 952:	99 27       	eor	r25, r25
 954:	87 fd       	sbrc	r24, 7
 956:	90 95       	com	r25
 958:	0d dc       	rcall	.-2022   	; 0x174 <LCDWriteInt>
 95a:	60 e0       	ldi	r22, 0x00	; 0
 95c:	8e e0       	ldi	r24, 0x0E	; 14
 95e:	52 dc       	rcall	.-1884   	; 0x204 <LCDGotoXY>
 960:	62 e0       	ldi	r22, 0x02	; 2
 962:	70 e0       	ldi	r23, 0x00	; 0
 964:	81 2f       	mov	r24, r17
 966:	99 27       	eor	r25, r25
 968:	87 fd       	sbrc	r24, 7
 96a:	90 95       	com	r25
 96c:	03 dc       	rcall	.-2042   	; 0x174 <LCDWriteInt>
 96e:	80 91 60 00 	lds	r24, 0x0060
 972:	81 11       	cpse	r24, r1
 974:	05 c0       	rjmp	.+10     	; 0x980 <main+0x16c>
 976:	61 e0       	ldi	r22, 0x01	; 1
 978:	45 dc       	rcall	.-1910   	; 0x204 <LCDGotoXY>
 97a:	83 e8       	ldi	r24, 0x83	; 131
 97c:	90 e0       	ldi	r25, 0x00	; 0
 97e:	ee db       	rcall	.-2084   	; 0x15c <LCDWriteString>
 980:	80 91 60 00 	lds	r24, 0x0060
 984:	81 30       	cpi	r24, 0x01	; 1
 986:	31 f4       	brne	.+12     	; 0x994 <main+0x180>
 988:	61 e0       	ldi	r22, 0x01	; 1
 98a:	8b e0       	ldi	r24, 0x0B	; 11
 98c:	3b dc       	rcall	.-1930   	; 0x204 <LCDGotoXY>
 98e:	84 ed       	ldi	r24, 0xD4	; 212
 990:	90 e0       	ldi	r25, 0x00	; 0
 992:	e4 db       	rcall	.-2104   	; 0x15c <LCDWriteString>
 994:	80 91 60 00 	lds	r24, 0x0060
 998:	82 30       	cpi	r24, 0x02	; 2
 99a:	31 f4       	brne	.+12     	; 0x9a8 <main+0x194>
 99c:	61 e0       	ldi	r22, 0x01	; 1
 99e:	8e e0       	ldi	r24, 0x0E	; 14
 9a0:	31 dc       	rcall	.-1950   	; 0x204 <LCDGotoXY>
 9a2:	84 ed       	ldi	r24, 0xD4	; 212
 9a4:	90 e0       	ldi	r25, 0x00	; 0
 9a6:	da db       	rcall	.-2124   	; 0x15c <LCDWriteString>
 9a8:	ce 01       	movw	r24, r28
 9aa:	01 97       	sbiw	r24, 0x01	; 1
 9ac:	f1 f7       	brne	.-4      	; 0x9aa <main+0x196>
 9ae:	ce 01       	movw	r24, r28
 9b0:	01 97       	sbiw	r24, 0x01	; 1
 9b2:	f1 f7       	brne	.-4      	; 0x9b0 <main+0x19c>
 9b4:	ce 01       	movw	r24, r28
 9b6:	01 97       	sbiw	r24, 0x01	; 1
 9b8:	f1 f7       	brne	.-4      	; 0x9b6 <main+0x1a2>
 9ba:	ce 01       	movw	r24, r28
 9bc:	01 97       	sbiw	r24, 0x01	; 1
 9be:	f1 f7       	brne	.-4      	; 0x9bc <main+0x1a8>
 9c0:	ce 01       	movw	r24, r28
 9c2:	01 97       	sbiw	r24, 0x01	; 1
 9c4:	f1 f7       	brne	.-4      	; 0x9c2 <main+0x1ae>
 9c6:	ce 01       	movw	r24, r28
 9c8:	01 97       	sbiw	r24, 0x01	; 1
 9ca:	f1 f7       	brne	.-4      	; 0x9c8 <main+0x1b4>
 9cc:	ce 01       	movw	r24, r28
 9ce:	01 97       	sbiw	r24, 0x01	; 1
 9d0:	f1 f7       	brne	.-4      	; 0x9ce <main+0x1ba>
 9d2:	ce 01       	movw	r24, r28
 9d4:	01 97       	sbiw	r24, 0x01	; 1
 9d6:	f1 f7       	brne	.-4      	; 0x9d4 <main+0x1c0>
 9d8:	5c cf       	rjmp	.-328    	; 0x892 <main+0x7e>
 9da:	00 93 1e 01 	sts	0x011E, r16
 9de:	10 93 1f 01 	sts	0x011F, r17
 9e2:	10 92 20 01 	sts	0x0120, r1
 9e6:	60 e0       	ldi	r22, 0x00	; 0
 9e8:	81 e0       	ldi	r24, 0x01	; 1
 9ea:	62 db       	rcall	.-2364   	; 0xb0 <LCDByte>
 9ec:	81 ee       	ldi	r24, 0xE1	; 225
 9ee:	90 e0       	ldi	r25, 0x00	; 0
 9f0:	b5 db       	rcall	.-2198   	; 0x15c <LCDWriteString>
 9f2:	61 e0       	ldi	r22, 0x01	; 1
 9f4:	80 e0       	ldi	r24, 0x00	; 0
 9f6:	06 dc       	rcall	.-2036   	; 0x204 <LCDGotoXY>
 9f8:	82 ef       	ldi	r24, 0xF2	; 242
 9fa:	90 e0       	ldi	r25, 0x00	; 0
 9fc:	af db       	rcall	.-2210   	; 0x15c <LCDWriteString>
 9fe:	10 92 60 00 	sts	0x0060, r1
 a02:	86 b3       	in	r24, 0x16	; 22
 a04:	80 93 2b 01 	sts	0x012B, r24
 a08:	c0 e0       	ldi	r28, 0x00	; 0
 a0a:	d0 e0       	ldi	r29, 0x00	; 0
 a0c:	96 b3       	in	r25, 0x16	; 22
 a0e:	80 91 2b 01 	lds	r24, 0x012B
 a12:	89 27       	eor	r24, r25
 a14:	87 70       	andi	r24, 0x07	; 7
 a16:	d1 f3       	breq	.-12     	; 0xa0c <main+0x1f8>
 a18:	b2 99       	sbic	0x16, 2	; 22
 a1a:	0f c0       	rjmp	.+30     	; 0xa3a <main+0x226>
 a1c:	80 91 2b 01 	lds	r24, 0x012B
 a20:	82 ff       	sbrs	r24, 2
 a22:	0b c0       	rjmp	.+22     	; 0xa3a <main+0x226>
 a24:	80 91 60 00 	lds	r24, 0x0060
 a28:	8f 5f       	subi	r24, 0xFF	; 255
 a2a:	80 93 60 00 	sts	0x0060, r24
 a2e:	80 91 60 00 	lds	r24, 0x0060
 a32:	83 30       	cpi	r24, 0x03	; 3
 a34:	11 f4       	brne	.+4      	; 0xa3a <main+0x226>
 a36:	10 92 60 00 	sts	0x0060, r1
 a3a:	b1 9b       	sbis	0x16, 1	; 22
 a3c:	03 c0       	rjmp	.+6      	; 0xa44 <main+0x230>
 a3e:	b0 9b       	sbis	0x16, 0	; 22
 a40:	28 c0       	rjmp	.+80     	; 0xa92 <main+0x27e>
 a42:	13 c0       	rjmp	.+38     	; 0xa6a <main+0x256>
 a44:	80 91 2b 01 	lds	r24, 0x012B
 a48:	81 ff       	sbrs	r24, 1
 a4a:	f9 cf       	rjmp	.-14     	; 0xa3e <main+0x22a>
 a4c:	80 91 60 00 	lds	r24, 0x0060
 a50:	81 11       	cpse	r24, r1
 a52:	01 c0       	rjmp	.+2      	; 0xa56 <main+0x242>
 a54:	f6 db       	rcall	.-2068   	; 0x242 <SetDevice1>
 a56:	80 91 60 00 	lds	r24, 0x0060
 a5a:	81 30       	cpi	r24, 0x01	; 1
 a5c:	09 f4       	brne	.+2      	; 0xa60 <main+0x24c>
 a5e:	43 dd       	rcall	.-1402   	; 0x4e6 <SetDevice2>
 a60:	80 91 60 00 	lds	r24, 0x0060
 a64:	82 30       	cpi	r24, 0x02	; 2
 a66:	59 f7       	brne	.-42     	; 0xa3e <main+0x22a>
 a68:	5a c0       	rjmp	.+180    	; 0xb1e <main+0x30a>
 a6a:	86 b3       	in	r24, 0x16	; 22
 a6c:	80 93 2b 01 	sts	0x012B, r24
 a70:	60 e0       	ldi	r22, 0x00	; 0
 a72:	81 e0       	ldi	r24, 0x01	; 1
 a74:	1d db       	rcall	.-2502   	; 0xb0 <LCDByte>
 a76:	81 ee       	ldi	r24, 0xE1	; 225
 a78:	90 e0       	ldi	r25, 0x00	; 0
 a7a:	70 db       	rcall	.-2336   	; 0x15c <LCDWriteString>
 a7c:	61 e0       	ldi	r22, 0x01	; 1
 a7e:	80 e0       	ldi	r24, 0x00	; 0
 a80:	c1 db       	rcall	.-2174   	; 0x204 <LCDGotoXY>
 a82:	8f ef       	ldi	r24, 0xFF	; 255
 a84:	90 e0       	ldi	r25, 0x00	; 0
 a86:	6a db       	rcall	.-2348   	; 0x15c <LCDWriteString>
 a88:	80 91 60 00 	lds	r24, 0x0060
 a8c:	81 11       	cpse	r24, r1
 a8e:	1a c0       	rjmp	.+52     	; 0xac4 <main+0x2b0>
 a90:	13 c0       	rjmp	.+38     	; 0xab8 <main+0x2a4>
 a92:	80 91 2b 01 	lds	r24, 0x012B
 a96:	80 ff       	sbrs	r24, 0
 a98:	e8 cf       	rjmp	.-48     	; 0xa6a <main+0x256>
 a9a:	80 91 60 00 	lds	r24, 0x0060
 a9e:	81 11       	cpse	r24, r1
 aa0:	01 c0       	rjmp	.+2      	; 0xaa4 <main+0x290>
 aa2:	cf db       	rcall	.-2146   	; 0x242 <SetDevice1>
 aa4:	80 91 60 00 	lds	r24, 0x0060
 aa8:	81 30       	cpi	r24, 0x01	; 1
 aaa:	09 f4       	brne	.+2      	; 0xaae <main+0x29a>
 aac:	1c dd       	rcall	.-1480   	; 0x4e6 <SetDevice2>
 aae:	80 91 60 00 	lds	r24, 0x0060
 ab2:	82 30       	cpi	r24, 0x02	; 2
 ab4:	d1 f6       	brne	.-76     	; 0xa6a <main+0x256>
 ab6:	33 c0       	rjmp	.+102    	; 0xb1e <main+0x30a>
 ab8:	60 e0       	ldi	r22, 0x00	; 0
 aba:	80 e0       	ldi	r24, 0x00	; 0
 abc:	a3 db       	rcall	.-2234   	; 0x204 <LCDGotoXY>
 abe:	83 e8       	ldi	r24, 0x83	; 131
 ac0:	90 e0       	ldi	r25, 0x00	; 0
 ac2:	4c db       	rcall	.-2408   	; 0x15c <LCDWriteString>
 ac4:	80 91 60 00 	lds	r24, 0x0060
 ac8:	81 30       	cpi	r24, 0x01	; 1
 aca:	31 f4       	brne	.+12     	; 0xad8 <main+0x2c4>
 acc:	61 e0       	ldi	r22, 0x01	; 1
 ace:	80 e0       	ldi	r24, 0x00	; 0
 ad0:	99 db       	rcall	.-2254   	; 0x204 <LCDGotoXY>
 ad2:	83 e8       	ldi	r24, 0x83	; 131
 ad4:	90 e0       	ldi	r25, 0x00	; 0
 ad6:	42 db       	rcall	.-2428   	; 0x15c <LCDWriteString>
 ad8:	80 91 60 00 	lds	r24, 0x0060
 adc:	82 30       	cpi	r24, 0x02	; 2
 ade:	31 f4       	brne	.+12     	; 0xaec <main+0x2d8>
 ae0:	60 e0       	ldi	r22, 0x00	; 0
 ae2:	8a e0       	ldi	r24, 0x0A	; 10
 ae4:	8f db       	rcall	.-2274   	; 0x204 <LCDGotoXY>
 ae6:	83 e8       	ldi	r24, 0x83	; 131
 ae8:	90 e0       	ldi	r25, 0x00	; 0
 aea:	38 db       	rcall	.-2448   	; 0x15c <LCDWriteString>
 aec:	ce 01       	movw	r24, r28
 aee:	01 97       	sbiw	r24, 0x01	; 1
 af0:	f1 f7       	brne	.-4      	; 0xaee <main+0x2da>
 af2:	ce 01       	movw	r24, r28
 af4:	01 97       	sbiw	r24, 0x01	; 1
 af6:	f1 f7       	brne	.-4      	; 0xaf4 <main+0x2e0>
 af8:	ce 01       	movw	r24, r28
 afa:	01 97       	sbiw	r24, 0x01	; 1
 afc:	f1 f7       	brne	.-4      	; 0xafa <main+0x2e6>
 afe:	ce 01       	movw	r24, r28
 b00:	01 97       	sbiw	r24, 0x01	; 1
 b02:	f1 f7       	brne	.-4      	; 0xb00 <main+0x2ec>
 b04:	ce 01       	movw	r24, r28
 b06:	01 97       	sbiw	r24, 0x01	; 1
 b08:	f1 f7       	brne	.-4      	; 0xb06 <main+0x2f2>
 b0a:	ce 01       	movw	r24, r28
 b0c:	01 97       	sbiw	r24, 0x01	; 1
 b0e:	f1 f7       	brne	.-4      	; 0xb0c <main+0x2f8>
 b10:	ce 01       	movw	r24, r28
 b12:	01 97       	sbiw	r24, 0x01	; 1
 b14:	f1 f7       	brne	.-4      	; 0xb12 <main+0x2fe>
 b16:	ce 01       	movw	r24, r28
 b18:	01 97       	sbiw	r24, 0x01	; 1
 b1a:	f1 f7       	brne	.-4      	; 0xb18 <main+0x304>
 b1c:	77 cf       	rjmp	.-274    	; 0xa0c <main+0x1f8>
 b1e:	60 e0       	ldi	r22, 0x00	; 0
 b20:	81 e0       	ldi	r24, 0x01	; 1
 b22:	c6 da       	rcall	.-2676   	; 0xb0 <LCDByte>
 b24:	8a e0       	ldi	r24, 0x0A	; 10
 b26:	91 e0       	ldi	r25, 0x01	; 1
 b28:	19 db       	rcall	.-2510   	; 0x15c <LCDWriteString>
 b2a:	c0 e0       	ldi	r28, 0x00	; 0
 b2c:	d0 e0       	ldi	r29, 0x00	; 0
 b2e:	61 e0       	ldi	r22, 0x01	; 1
 b30:	84 e0       	ldi	r24, 0x04	; 4
 b32:	68 db       	rcall	.-2352   	; 0x204 <LCDGotoXY>
 b34:	80 91 1e 01 	lds	r24, 0x011E
 b38:	62 e0       	ldi	r22, 0x02	; 2
 b3a:	70 e0       	ldi	r23, 0x00	; 0
 b3c:	99 27       	eor	r25, r25
 b3e:	87 fd       	sbrc	r24, 7
 b40:	90 95       	com	r25
 b42:	18 db       	rcall	.-2512   	; 0x174 <LCDWriteInt>
 b44:	8b e1       	ldi	r24, 0x1B	; 27
 b46:	91 e0       	ldi	r25, 0x01	; 1
 b48:	09 db       	rcall	.-2542   	; 0x15c <LCDWriteString>
 b4a:	61 e0       	ldi	r22, 0x01	; 1
 b4c:	87 e0       	ldi	r24, 0x07	; 7
 b4e:	5a db       	rcall	.-2380   	; 0x204 <LCDGotoXY>
 b50:	80 91 1f 01 	lds	r24, 0x011F
 b54:	62 e0       	ldi	r22, 0x02	; 2
 b56:	70 e0       	ldi	r23, 0x00	; 0
 b58:	99 27       	eor	r25, r25
 b5a:	87 fd       	sbrc	r24, 7
 b5c:	90 95       	com	r25
 b5e:	0a db       	rcall	.-2540   	; 0x174 <LCDWriteInt>
 b60:	8b e1       	ldi	r24, 0x1B	; 27
 b62:	91 e0       	ldi	r25, 0x01	; 1
 b64:	fb da       	rcall	.-2570   	; 0x15c <LCDWriteString>
 b66:	61 e0       	ldi	r22, 0x01	; 1
 b68:	8a e0       	ldi	r24, 0x0A	; 10
 b6a:	4c db       	rcall	.-2408   	; 0x204 <LCDGotoXY>
 b6c:	80 91 20 01 	lds	r24, 0x0120
 b70:	62 e0       	ldi	r22, 0x02	; 2
 b72:	70 e0       	ldi	r23, 0x00	; 0
 b74:	99 27       	eor	r25, r25
 b76:	87 fd       	sbrc	r24, 7
 b78:	90 95       	com	r25
 b7a:	fc da       	rcall	.-2568   	; 0x174 <LCDWriteInt>
 b7c:	90 91 1e 01 	lds	r25, 0x011E
 b80:	80 91 29 01 	lds	r24, 0x0129
 b84:	98 13       	cpse	r25, r24
 b86:	0b c0       	rjmp	.+22     	; 0xb9e <main+0x38a>
 b88:	90 91 1f 01 	lds	r25, 0x011F
 b8c:	80 91 26 01 	lds	r24, 0x0126
 b90:	98 13       	cpse	r25, r24
 b92:	05 c0       	rjmp	.+10     	; 0xb9e <main+0x38a>
 b94:	80 91 20 01 	lds	r24, 0x0120
 b98:	81 11       	cpse	r24, r1
 b9a:	01 c0       	rjmp	.+2      	; 0xb9e <main+0x38a>
 b9c:	4a db       	rcall	.-2412   	; 0x232 <LoadOn1>
 b9e:	90 91 1e 01 	lds	r25, 0x011E
 ba2:	80 91 24 01 	lds	r24, 0x0124
 ba6:	98 13       	cpse	r25, r24
 ba8:	0b c0       	rjmp	.+22     	; 0xbc0 <main+0x3ac>
 baa:	90 91 1f 01 	lds	r25, 0x011F
 bae:	80 91 28 01 	lds	r24, 0x0128
 bb2:	98 13       	cpse	r25, r24
 bb4:	05 c0       	rjmp	.+10     	; 0xbc0 <main+0x3ac>
 bb6:	80 91 20 01 	lds	r24, 0x0120
 bba:	81 11       	cpse	r24, r1
 bbc:	01 c0       	rjmp	.+2      	; 0xbc0 <main+0x3ac>
 bbe:	3b db       	rcall	.-2442   	; 0x236 <LoadOff1>
 bc0:	90 91 1e 01 	lds	r25, 0x011E
 bc4:	80 91 23 01 	lds	r24, 0x0123
 bc8:	98 13       	cpse	r25, r24
 bca:	0b c0       	rjmp	.+22     	; 0xbe2 <main+0x3ce>
 bcc:	90 91 1f 01 	lds	r25, 0x011F
 bd0:	80 91 27 01 	lds	r24, 0x0127
 bd4:	98 13       	cpse	r25, r24
 bd6:	05 c0       	rjmp	.+10     	; 0xbe2 <main+0x3ce>
 bd8:	80 91 20 01 	lds	r24, 0x0120
 bdc:	81 11       	cpse	r24, r1
 bde:	01 c0       	rjmp	.+2      	; 0xbe2 <main+0x3ce>
 be0:	2c db       	rcall	.-2472   	; 0x23a <LoadOn2>
 be2:	90 91 1e 01 	lds	r25, 0x011E
 be6:	80 91 25 01 	lds	r24, 0x0125
 bea:	98 13       	cpse	r25, r24
 bec:	0b c0       	rjmp	.+22     	; 0xc04 <main+0x3f0>
 bee:	90 91 1f 01 	lds	r25, 0x011F
 bf2:	80 91 2a 01 	lds	r24, 0x012A
 bf6:	98 13       	cpse	r25, r24
 bf8:	05 c0       	rjmp	.+10     	; 0xc04 <main+0x3f0>
 bfa:	80 91 20 01 	lds	r24, 0x0120
 bfe:	81 11       	cpse	r24, r1
 c00:	01 c0       	rjmp	.+2      	; 0xc04 <main+0x3f0>
 c02:	1d db       	rcall	.-2502   	; 0x23e <LoadOff2>
 c04:	ce 01       	movw	r24, r28
 c06:	01 97       	sbiw	r24, 0x01	; 1
 c08:	f1 f7       	brne	.-4      	; 0xc06 <main+0x3f2>
 c0a:	ce 01       	movw	r24, r28
 c0c:	01 97       	sbiw	r24, 0x01	; 1
 c0e:	f1 f7       	brne	.-4      	; 0xc0c <main+0x3f8>
 c10:	ce 01       	movw	r24, r28
 c12:	01 97       	sbiw	r24, 0x01	; 1
 c14:	f1 f7       	brne	.-4      	; 0xc12 <main+0x3fe>
 c16:	ce 01       	movw	r24, r28
 c18:	01 97       	sbiw	r24, 0x01	; 1
 c1a:	f1 f7       	brne	.-4      	; 0xc18 <main+0x404>
 c1c:	88 cf       	rjmp	.-240    	; 0xb2e <main+0x31a>

00000c1e <__divmodhi4>:
 c1e:	97 fb       	bst	r25, 7
 c20:	07 2e       	mov	r0, r23
 c22:	16 f4       	brtc	.+4      	; 0xc28 <__divmodhi4+0xa>
 c24:	00 94       	com	r0
 c26:	06 d0       	rcall	.+12     	; 0xc34 <__divmodhi4_neg1>
 c28:	77 fd       	sbrc	r23, 7
 c2a:	08 d0       	rcall	.+16     	; 0xc3c <__divmodhi4_neg2>
 c2c:	0b d0       	rcall	.+22     	; 0xc44 <__udivmodhi4>
 c2e:	07 fc       	sbrc	r0, 7
 c30:	05 d0       	rcall	.+10     	; 0xc3c <__divmodhi4_neg2>
 c32:	3e f4       	brtc	.+14     	; 0xc42 <__divmodhi4_exit>

00000c34 <__divmodhi4_neg1>:
 c34:	90 95       	com	r25
 c36:	81 95       	neg	r24
 c38:	9f 4f       	sbci	r25, 0xFF	; 255
 c3a:	08 95       	ret

00000c3c <__divmodhi4_neg2>:
 c3c:	70 95       	com	r23
 c3e:	61 95       	neg	r22
 c40:	7f 4f       	sbci	r23, 0xFF	; 255

00000c42 <__divmodhi4_exit>:
 c42:	08 95       	ret

00000c44 <__udivmodhi4>:
 c44:	aa 1b       	sub	r26, r26
 c46:	bb 1b       	sub	r27, r27
 c48:	51 e1       	ldi	r21, 0x11	; 17
 c4a:	07 c0       	rjmp	.+14     	; 0xc5a <__udivmodhi4_ep>

00000c4c <__udivmodhi4_loop>:
 c4c:	aa 1f       	adc	r26, r26
 c4e:	bb 1f       	adc	r27, r27
 c50:	a6 17       	cp	r26, r22
 c52:	b7 07       	cpc	r27, r23
 c54:	10 f0       	brcs	.+4      	; 0xc5a <__udivmodhi4_ep>
 c56:	a6 1b       	sub	r26, r22
 c58:	b7 0b       	sbc	r27, r23

00000c5a <__udivmodhi4_ep>:
 c5a:	88 1f       	adc	r24, r24
 c5c:	99 1f       	adc	r25, r25
 c5e:	5a 95       	dec	r21
 c60:	a9 f7       	brne	.-22     	; 0xc4c <__udivmodhi4_loop>
 c62:	80 95       	com	r24
 c64:	90 95       	com	r25
 c66:	bc 01       	movw	r22, r24
 c68:	cd 01       	movw	r24, r26
 c6a:	08 95       	ret

00000c6c <_exit>:
 c6c:	f8 94       	cli

00000c6e <__stop_program>:
 c6e:	ff cf       	rjmp	.-2      	; 0xc6e <__stop_program>
